#include <math.h>
#include <stdio.h>
#include <stdlib.h>
#include <string.h>

int main(){
	char an[270],bn[270],cn[270],temp[270];
	scanf("%s%s%s",an,bn,cn);
	char *p=strstr(an,bn);
	int len=strlen(bn);
	if(p!=NULL){
		strcpy(temp,p+len);
		*p='\0';
		strcat(an,cn);
		strcat(an,temp);
	}
	printf("%s",an);
	return 0;
}