; ModuleID = '7/1096.c'
source_filename = "7/1096.c"
target datalayout = "e-m:e-p270:32:32-p271:32:32-p272:64:64-i64:64-f80:128-n8:16:32:64-S128"
target triple = "x86_64-pc-linux-gnu"

@.str = private unnamed_addr constant [7 x i8] c"%s%s%s\00", align 1
@.str.1 = private unnamed_addr constant [3 x i8] c"%s\00", align 1

; Function Attrs: noinline nounwind uwtable
define dso_local i32 @main() #0 {
  %1 = alloca i32, align 4
  %2 = alloca [270 x i8], align 16
  %3 = alloca [270 x i8], align 16
  %4 = alloca [270 x i8], align 16
  %5 = alloca [270 x i8], align 16
  %6 = alloca i8*, align 8
  %7 = alloca i32, align 4
  store i32 0, i32* %1, align 4
  %8 = getelementptr inbounds [270 x i8], [270 x i8]* %2, i64 0, i64 0
  %9 = getelementptr inbounds [270 x i8], [270 x i8]* %3, i64 0, i64 0
  %10 = getelementptr inbounds [270 x i8], [270 x i8]* %4, i64 0, i64 0
  %11 = call i32 (i8*, ...) @__isoc99_scanf(i8* getelementptr inbounds ([7 x i8], [7 x i8]* @.str, i64 0, i64 0), i8* %8, i8* %9, i8* %10)
  %12 = getelementptr inbounds [270 x i8], [270 x i8]* %2, i64 0, i64 0
  %13 = getelementptr inbounds [270 x i8], [270 x i8]* %3, i64 0, i64 0
  %14 = call i8* @strstr(i8* %12, i8* %13) #4
  store i8* %14, i8** %6, align 8
  %15 = getelementptr inbounds [270 x i8], [270 x i8]* %3, i64 0, i64 0
  %16 = call i64 @strlen(i8* %15) #4
  %17 = trunc i64 %16 to i32
  store i32 %17, i32* %7, align 4
  %18 = load i8*, i8** %6, align 8
  %19 = icmp ne i8* %18, null
  br i1 %19, label %20, label %34

20:                                               ; preds = %0
  %21 = getelementptr inbounds [270 x i8], [270 x i8]* %5, i64 0, i64 0
  %22 = load i8*, i8** %6, align 8
  %23 = load i32, i32* %7, align 4
  %24 = sext i32 %23 to i64
  %25 = getelementptr inbounds i8, i8* %22, i64 %24
  %26 = call i8* @strcpy(i8* %21, i8* %25) #5
  %27 = load i8*, i8** %6, align 8
  store i8 0, i8* %27, align 1
  %28 = getelementptr inbounds [270 x i8], [270 x i8]* %2, i64 0, i64 0
  %29 = getelementptr inbounds [270 x i8], [270 x i8]* %4, i64 0, i64 0
  %30 = call i8* @strcat(i8* %28, i8* %29) #5
  %31 = getelementptr inbounds [270 x i8], [270 x i8]* %2, i64 0, i64 0
  %32 = getelementptr inbounds [270 x i8], [270 x i8]* %5, i64 0, i64 0
  %33 = call i8* @strcat(i8* %31, i8* %32) #5
  br label %34

34:                                               ; preds = %20, %0
  %35 = getelementptr inbounds [270 x i8], [270 x i8]* %2, i64 0, i64 0
  %36 = call i32 (i8*, ...) @printf(i8* getelementptr inbounds ([3 x i8], [3 x i8]* @.str.1, i64 0, i64 0), i8* %35)
  ret i32 0
}

declare dso_local i32 @__isoc99_scanf(i8*, ...) #1

; Function Attrs: nounwind readonly
declare dso_local i8* @strstr(i8*, i8*) #2

; Function Attrs: nounwind readonly
declare dso_local i64 @strlen(i8*) #2

; Function Attrs: nounwind
declare dso_local i8* @strcpy(i8*, i8*) #3

; Function Attrs: nounwind
declare dso_local i8* @strcat(i8*, i8*) #3

declare dso_local i32 @printf(i8*, ...) #1


!llvm.module.flags = !{!0}
!llvm.ident = !{!1}

!0 = !{i32 1, !"wchar_size", i32 4}
!1 = !{!"clang version 10.0.0-4ubuntu1 "}
